target datalayout = "e-m:e-p270:32:32-p271:32:32-p272:64:64-i64:64-i128:128-f80:128-n8:16:32:64-S128"
target triple = "x86_64-pc-linux-gnu"

%class.Blocks = type <{ %"class.std::set", ptr, i32, [4 x i8] }>
%"class.std::set" = type { %"class.std::_Rb_tree" }
%"class.std::_Rb_tree" = type { %"struct.std::_Rb_tree<Block *, Block *, std::_Identity<Block *>, std::less<Block *>>::_Rb_tree_impl" }
%"struct.std::_Rb_tree<Block *, Block *, std::_Identity<Block *>, std::less<Block *>>::_Rb_tree_impl" = type { %"struct.std::_Rb_tree_key_compare", %"struct.std::_Rb_tree_header" }
%"struct.std::_Rb_tree_key_compare" = type { %"struct.std::less" }
%"struct.std::less" = type { i8 }
%"struct.std::_Rb_tree_header" = type { %"struct.std::_Rb_tree_node_base", i64 }
%"struct.std::_Rb_tree_node_base" = type { i32, ptr, ptr, ptr }
%"class.std::vector" = type { %"struct.std::_Vector_base" }
%"struct.std::_Vector_base" = type { %"struct.std::_Vector_base<Constraint *, std::allocator<Constraint *>>::_Vector_impl" }
%"struct.std::_Vector_base<Constraint *, std::allocator<Constraint *>>::_Vector_impl" = type { %"struct.std::_Vector_base<Constraint *, std::allocator<Constraint *>>::_Vector_impl_data" }
%"struct.std::_Vector_base<Constraint *, std::allocator<Constraint *>>::_Vector_impl_data" = type { ptr, ptr, ptr }
%struct.Constraint = type <{ ptr, ptr, double, double, i64, i8, i8, [6 x i8] }>
%struct.VPSC = type <{ ptr, %class.Blocks, ptr, i32, [4 x i8] }>
%struct.Variable = type { i32, double, double, double, ptr, i8, %"class.std::vector", %"class.std::vector" }
%class.Block = type { %"class.std::vector.6", double, double, double, i8, i64, %"class.std::unique_ptr", %"class.std::unique_ptr" }
%"class.std::vector.6" = type { %"struct.std::_Vector_base.7" }
%"struct.std::_Vector_base.7" = type { %"struct.std::_Vector_base<Variable *, std::allocator<Variable *>>::_Vector_impl" }
%"struct.std::_Vector_base<Variable *, std::allocator<Variable *>>::_Vector_impl" = type { %"struct.std::_Vector_base<Variable *, std::allocator<Variable *>>::_Vector_impl_data" }
%"struct.std::_Vector_base<Variable *, std::allocator<Variable *>>::_Vector_impl_data" = type { ptr, ptr, ptr }
%"class.std::unique_ptr" = type { %"struct.std::__uniq_ptr_data" }
%"struct.std::__uniq_ptr_data" = type { %"class.std::__uniq_ptr_impl" }
%"class.std::__uniq_ptr_impl" = type { %"class.std::tuple" }
%"class.std::tuple" = type { %"struct.std::_Tuple_impl" }
%"struct.std::_Tuple_impl" = type { %"struct.std::_Head_base.12" }
%"struct.std::_Head_base.12" = type { ptr }
%"struct.std::_Rb_tree_const_iterator" = type { ptr }
%"struct.std::_Rb_tree_node.62" = type { %"struct.std::_Rb_tree_node_base", %"struct.__gnu_cxx::__aligned_membuf.63" }
%"struct.__gnu_cxx::__aligned_membuf.63" = type { [8 x i8] }

@.str = private unnamed_addr constant [23 x i8] c"Unsatisfied constraint\00", align 1
@_ZTIPKc = external constant ptr

; Function Attrs: mustprogress nounwind uwtable
define linkonce_odr noundef ptr @_ZNK9__gnu_cxx16__aligned_membufIP5BlockE7_M_addrEv(ptr noundef nonnull align 8 dereferenceable(8) %0) #5 comdat align 2 {
  %2 = alloca ptr, align 8
  store ptr %0, ptr %2, align 8
  %3 = load ptr, ptr %2, align 8
  %4 = getelementptr inbounds %"struct.__gnu_cxx::__aligned_membuf.63", ptr %3, i32 0, i32 0
  ret ptr %4
}

; Function Attrs: mustprogress nounwind uwtable
define linkonce_odr noundef ptr @_ZNK9__gnu_cxx16__aligned_membufIP5BlockE6_M_ptrEv(ptr noundef nonnull align 8 dereferenceable(8) %0) #5 comdat align 2 {
  %2 = alloca ptr, align 8
  store ptr %0, ptr %2, align 8
  %3 = load ptr, ptr %2, align 8
  %4 = call noundef ptr @_ZNK9__gnu_cxx16__aligned_membufIP5BlockE7_M_addrEv(ptr noundef nonnull align 8 dereferenceable(8) %3) #3
  ret ptr %4
}

; Function Attrs: mustprogress nounwind uwtable
define linkonce_odr void @_ZNSt23_Rb_tree_const_iteratorIP5BlockEC2EPKSt18_Rb_tree_node_base(ptr noundef nonnull align 8 dereferenceable(8) %0, ptr noundef %1) unnamed_addr #5 comdat align 2 {
  %3 = alloca ptr, align 8
  %4 = alloca ptr, align 8
  store ptr %0, ptr %3, align 8
  store ptr %1, ptr %4, align 8
  %5 = load ptr, ptr %3, align 8
  %6 = getelementptr inbounds %"struct.std::_Rb_tree_const_iterator", ptr %5, i32 0, i32 0
  %7 = load ptr, ptr %4, align 8
  store ptr %7, ptr %6, align 8
  ret void
}

; Function Attrs: mustprogress nounwind uwtable
define linkonce_odr noundef double @_ZNK8Variable8positionEv(ptr noundef nonnull align 8 dereferenceable(96) %0) #5 comdat align 2 {
  %2 = alloca ptr, align 8
  store ptr %0, ptr %2, align 8
  %3 = load ptr, ptr %2, align 8
  %4 = getelementptr inbounds %struct.Variable, ptr %3, i32 0, i32 4
  %5 = load ptr, ptr %4, align 8
  %6 = getelementptr inbounds %class.Block, ptr %5, i32 0, i32 1
  %7 = load double, ptr %6, align 8
  %8 = getelementptr inbounds %struct.Variable, ptr %3, i32 0, i32 3
  %9 = load double, ptr %8, align 8
  %10 = fadd double %7, %9
  ret double %10
}

; Function Attrs: noreturn nounwind uwtable
define linkonce_odr hidden void @__clang_call_terminate(ptr noundef %0) #9 comdat {
  %2 = call ptr @__cxa_begin_catch(ptr %0) #3
  call void @_ZSt9terminatev() #15
  unreachable
}

; Function Attrs: mustprogress nounwind uwtable
define linkonce_odr noundef ptr @_ZNKSt13_Rb_tree_nodeIP5BlockE9_M_valptrEv(ptr noundef nonnull align 8 dereferenceable(40) %0) #5 comdat align 2 {
  %2 = alloca ptr, align 8
  store ptr %0, ptr %2, align 8
  %3 = load ptr, ptr %2, align 8
  %4 = getelementptr inbounds %"struct.std::_Rb_tree_node.62", ptr %3, i32 0, i32 1
  %5 = call noundef ptr @_ZNK9__gnu_cxx16__aligned_membufIP5BlockE6_M_ptrEv(ptr noundef nonnull align 8 dereferenceable(8) %4) #3
  ret ptr %5
}

; Function Attrs: mustprogress nounwind uwtable
define linkonce_odr ptr @_ZNKSt8_Rb_treeIP5BlockS1_St9_IdentityIS1_ESt4lessIS1_ESaIS1_EE3endEv(ptr noundef nonnull align 8 dereferenceable(48) %0) #5 comdat align 2 {
  %2 = alloca %"struct.std::_Rb_tree_const_iterator", align 8
  %3 = alloca ptr, align 8
  store ptr %0, ptr %3, align 8
  %4 = load ptr, ptr %3, align 8
  %5 = getelementptr inbounds %"class.std::_Rb_tree", ptr %4, i32 0, i32 0
  %6 = getelementptr inbounds i8, ptr %5, i64 8
  %7 = getelementptr inbounds %"struct.std::_Rb_tree_header", ptr %6, i32 0, i32 0
  call void @_ZNSt23_Rb_tree_const_iteratorIP5BlockEC2EPKSt18_Rb_tree_node_base(ptr noundef nonnull align 8 dereferenceable(8) %2, ptr noundef %7) #3
  %8 = getelementptr inbounds %"struct.std::_Rb_tree_const_iterator", ptr %2, i32 0, i32 0
  %9 = load ptr, ptr %8, align 8
  ret ptr %9
}

; Function Attrs: mustprogress nounwind uwtable
define linkonce_odr ptr @_ZNKSt8_Rb_treeIP5BlockS1_St9_IdentityIS1_ESt4lessIS1_ESaIS1_EE5beginEv(ptr noundef nonnull align 8 dereferenceable(48) %0) #5 comdat align 2 {
  %2 = alloca %"struct.std::_Rb_tree_const_iterator", align 8
  %3 = alloca ptr, align 8
  store ptr %0, ptr %3, align 8
  %4 = load ptr, ptr %3, align 8
  %5 = getelementptr inbounds %"class.std::_Rb_tree", ptr %4, i32 0, i32 0
  %6 = getelementptr inbounds i8, ptr %5, i64 8
  %7 = getelementptr inbounds %"struct.std::_Rb_tree_header", ptr %6, i32 0, i32 0
  %8 = getelementptr inbounds %"struct.std::_Rb_tree_node_base", ptr %7, i32 0, i32 2
  %9 = load ptr, ptr %8, align 8
  call void @_ZNSt23_Rb_tree_const_iteratorIP5BlockEC2EPKSt18_Rb_tree_node_base(ptr noundef nonnull align 8 dereferenceable(8) %2, ptr noundef %9) #3
  %10 = getelementptr inbounds %"struct.std::_Rb_tree_const_iterator", ptr %2, i32 0, i32 0
  %11 = load ptr, ptr %10, align 8
  ret ptr %11
}

; Function Attrs: mustprogress uwtable
define linkonce_odr noundef double @_ZNK10Constraint5slackEv(ptr noundef nonnull align 8 dereferenceable(42) %0) #4 comdat align 2 {
  %2 = alloca ptr, align 8
  store ptr %0, ptr %2, align 8
  %3 = load ptr, ptr %2, align 8
  %4 = getelementptr inbounds %struct.Constraint, ptr %3, i32 0, i32 1
  %5 = load ptr, ptr %4, align 8
  %6 = call noundef double @_ZNK8Variable8positionEv(ptr noundef nonnull align 8 dereferenceable(96) %5)
  %7 = getelementptr inbounds %struct.Constraint, ptr %3, i32 0, i32 2
  %8 = load double, ptr %7, align 8
  %9 = fsub double %6, %8
  %10 = getelementptr inbounds %struct.Constraint, ptr %3, i32 0, i32 0
  %11 = load ptr, ptr %10, align 8
  %12 = call noundef double @_ZNK8Variable8positionEv(ptr noundef nonnull align 8 dereferenceable(96) %11)
  %13 = fsub double %9, %12
  ret double %13
}

; Function Attrs: mustprogress nounwind uwtable
define linkonce_odr noundef nonnull align 8 dereferenceable(8) ptr @_ZNSt23_Rb_tree_const_iteratorIP5BlockEppEv(ptr noundef nonnull align 8 dereferenceable(8) %0) #5 comdat align 2 {
  %2 = alloca ptr, align 8
  store ptr %0, ptr %2, align 8
  %3 = load ptr, ptr %2, align 8
  %4 = getelementptr inbounds %"struct.std::_Rb_tree_const_iterator", ptr %3, i32 0, i32 0
  %5 = load ptr, ptr %4, align 8
  %6 = call noundef ptr @_ZSt18_Rb_tree_incrementPKSt18_Rb_tree_node_base(ptr noundef %5) #17
  %7 = getelementptr inbounds %"struct.std::_Rb_tree_const_iterator", ptr %3, i32 0, i32 0
  store ptr %6, ptr %7, align 8
  ret ptr %3
}

; Function Attrs: mustprogress nounwind uwtable
define linkonce_odr noundef nonnull align 8 dereferenceable(8) ptr @_ZNKSt23_Rb_tree_const_iteratorIP5BlockEdeEv(ptr noundef nonnull align 8 dereferenceable(8) %0) #5 comdat align 2 personality ptr @__gxx_personality_v0 {
  %2 = alloca ptr, align 8
  store ptr %0, ptr %2, align 8
  %3 = load ptr, ptr %2, align 8
  %4 = getelementptr inbounds %"struct.std::_Rb_tree_const_iterator", ptr %3, i32 0, i32 0
  %5 = load ptr, ptr %4, align 8
  %6 = invoke noundef ptr @_ZNKSt13_Rb_tree_nodeIP5BlockE9_M_valptrEv(ptr noundef nonnull align 8 dereferenceable(40) %5)
          to label %7 unwind label %8

7:                                                ; preds = %1
  ret ptr %6

8:                                                ; preds = %1
  %9 = landingpad { ptr, i32 }
          catch ptr null
  %10 = extractvalue { ptr, i32 } %9, 0
  call void @__clang_call_terminate(ptr %10) #15
  unreachable
}

; Function Attrs: mustprogress nounwind uwtable
define linkonce_odr noundef zeroext i1 @_ZStneRKSt23_Rb_tree_const_iteratorIP5BlockES4_(ptr noundef nonnull align 8 dereferenceable(8) %0, ptr noundef nonnull align 8 dereferenceable(8) %1) #5 comdat {
  %3 = alloca ptr, align 8
  %4 = alloca ptr, align 8
  store ptr %0, ptr %3, align 8
  store ptr %1, ptr %4, align 8
  %5 = load ptr, ptr %3, align 8
  %6 = getelementptr inbounds %"struct.std::_Rb_tree_const_iterator", ptr %5, i32 0, i32 0
  %7 = load ptr, ptr %6, align 8
  %8 = load ptr, ptr %4, align 8
  %9 = getelementptr inbounds %"struct.std::_Rb_tree_const_iterator", ptr %8, i32 0, i32 0
  %10 = load ptr, ptr %9, align 8
  %11 = icmp ne ptr %7, %10
  ret i1 %11
}

; Function Attrs: mustprogress nounwind uwtable
define linkonce_odr ptr @_ZNKSt3setIP5BlockSt4lessIS1_ESaIS1_EE3endEv(ptr noundef nonnull align 8 dereferenceable(48) %0) #5 comdat align 2 {
  %2 = alloca %"struct.std::_Rb_tree_const_iterator", align 8
  %3 = alloca ptr, align 8
  store ptr %0, ptr %3, align 8
  %4 = load ptr, ptr %3, align 8
  %5 = getelementptr inbounds %"class.std::set", ptr %4, i32 0, i32 0
  %6 = call ptr @_ZNKSt8_Rb_treeIP5BlockS1_St9_IdentityIS1_ESt4lessIS1_ESaIS1_EE3endEv(ptr noundef nonnull align 8 dereferenceable(48) %5) #3
  %7 = getelementptr inbounds %"struct.std::_Rb_tree_const_iterator", ptr %2, i32 0, i32 0
  store ptr %6, ptr %7, align 8
  %8 = getelementptr inbounds %"struct.std::_Rb_tree_const_iterator", ptr %2, i32 0, i32 0
  %9 = load ptr, ptr %8, align 8
  ret ptr %9
}

; Function Attrs: mustprogress nounwind uwtable
define linkonce_odr ptr @_ZNKSt3setIP5BlockSt4lessIS1_ESaIS1_EE5beginEv(ptr noundef nonnull align 8 dereferenceable(48) %0) #5 comdat align 2 {
  %2 = alloca %"struct.std::_Rb_tree_const_iterator", align 8
  %3 = alloca ptr, align 8
  store ptr %0, ptr %3, align 8
  %4 = load ptr, ptr %3, align 8
  %5 = getelementptr inbounds %"class.std::set", ptr %4, i32 0, i32 0
  %6 = call ptr @_ZNKSt8_Rb_treeIP5BlockS1_St9_IdentityIS1_ESt4lessIS1_ESaIS1_EE5beginEv(ptr noundef nonnull align 8 dereferenceable(48) %5) #3
  %7 = getelementptr inbounds %"struct.std::_Rb_tree_const_iterator", ptr %2, i32 0, i32 0
  store ptr %6, ptr %7, align 8
  %8 = getelementptr inbounds %"struct.std::_Rb_tree_const_iterator", ptr %2, i32 0, i32 0
  %9 = load ptr, ptr %8, align 8
  ret ptr %9
}

; Function Attrs: mustprogress uwtable
define void @_ZN4VPSC6refineEv(ptr noundef nonnull align 8 dereferenceable(84) %0) #4 align 2 {
  %2 = alloca ptr, align 8
  %3 = alloca i8, align 1
  %4 = alloca ptr, align 8
  %5 = alloca %"struct.std::_Rb_tree_const_iterator", align 8
  %6 = alloca %"struct.std::_Rb_tree_const_iterator", align 8
  %7 = alloca ptr, align 8
  %8 = alloca ptr, align 8
  %9 = alloca %"struct.std::_Rb_tree_const_iterator", align 8
  %10 = alloca %"struct.std::_Rb_tree_const_iterator", align 8
  %11 = alloca ptr, align 8
  %12 = alloca ptr, align 8
  %13 = alloca ptr, align 8
  %14 = alloca ptr, align 8
  %15 = alloca i32, align 4
  store ptr %0, ptr %2, align 8
  %16 = load ptr, ptr %2, align 8
  store i8 0, ptr %3, align 1
  br label %17

17:                                               ; preds = %68, %1
  %18 = load i8, ptr %3, align 1
  %19 = trunc i8 %18 to i1
  %20 = xor i1 %19, true
  br i1 %20, label %21, label %69

21:                                               ; preds = %17
  store i8 1, ptr %3, align 1
  %22 = getelementptr inbounds %struct.VPSC, ptr %16, i32 0, i32 1
  store ptr %22, ptr %4, align 8
  %23 = load ptr, ptr %4, align 8
  %24 = call ptr @_ZNKSt3setIP5BlockSt4lessIS1_ESaIS1_EE5beginEv(ptr noundef nonnull align 8 dereferenceable(48) %23) #3
  %25 = getelementptr inbounds %"struct.std::_Rb_tree_const_iterator", ptr %5, i32 0, i32 0
  store ptr %24, ptr %25, align 8
  %26 = load ptr, ptr %4, align 8
  %27 = call ptr @_ZNKSt3setIP5BlockSt4lessIS1_ESaIS1_EE3endEv(ptr noundef nonnull align 8 dereferenceable(48) %26) #3
  %28 = getelementptr inbounds %"struct.std::_Rb_tree_const_iterator", ptr %6, i32 0, i32 0
  store ptr %27, ptr %28, align 8
  br label %29

29:                                               ; preds = %36, %21
  %30 = call noundef zeroext i1 @_ZStneRKSt23_Rb_tree_const_iteratorIP5BlockES4_(ptr noundef nonnull align 8 dereferenceable(8) %5, ptr noundef nonnull align 8 dereferenceable(8) %6) #3
  br i1 %30, label %31, label %38

31:                                               ; preds = %29
  %32 = call noundef nonnull align 8 dereferenceable(8) ptr @_ZNKSt23_Rb_tree_const_iteratorIP5BlockEdeEv(ptr noundef nonnull align 8 dereferenceable(8) %5) #3
  %33 = load ptr, ptr %32, align 8
  store ptr %33, ptr %7, align 8
  %34 = load ptr, ptr %7, align 8
  call void @_ZN5Block18setUpInConstraintsEv(ptr noundef nonnull align 8 dereferenceable(80) %34)
  %35 = load ptr, ptr %7, align 8
  call void @_ZN5Block19setUpOutConstraintsEv(ptr noundef nonnull align 8 dereferenceable(80) %35)
  br label %36

36:                                               ; preds = %31
  %37 = call noundef nonnull align 8 dereferenceable(8) ptr @_ZNSt23_Rb_tree_const_iteratorIP5BlockEppEv(ptr noundef nonnull align 8 dereferenceable(8) %5) #3
  br label %29

38:                                               ; preds = %29
  %39 = getelementptr inbounds %struct.VPSC, ptr %16, i32 0, i32 1
  store ptr %39, ptr %8, align 8
  %40 = load ptr, ptr %8, align 8
  %41 = call ptr @_ZNKSt3setIP5BlockSt4lessIS1_ESaIS1_EE5beginEv(ptr noundef nonnull align 8 dereferenceable(48) %40) #3
  %42 = getelementptr inbounds %"struct.std::_Rb_tree_const_iterator", ptr %9, i32 0, i32 0
  store ptr %41, ptr %42, align 8
  %43 = load ptr, ptr %8, align 8
  %44 = call ptr @_ZNKSt3setIP5BlockSt4lessIS1_ESaIS1_EE3endEv(ptr noundef nonnull align 8 dereferenceable(48) %43) #3
  %45 = getelementptr inbounds %"struct.std::_Rb_tree_const_iterator", ptr %10, i32 0, i32 0
  store ptr %44, ptr %45, align 8
  br label %46

46:                                               ; preds = %66, %38
  %47 = call noundef zeroext i1 @_ZStneRKSt23_Rb_tree_const_iteratorIP5BlockES4_(ptr noundef nonnull align 8 dereferenceable(8) %9, ptr noundef nonnull align 8 dereferenceable(8) %10) #3
  br i1 %47, label %48, label %68

48:                                               ; preds = %46
  %49 = call noundef nonnull align 8 dereferenceable(8) ptr @_ZNKSt23_Rb_tree_const_iteratorIP5BlockEdeEv(ptr noundef nonnull align 8 dereferenceable(8) %9) #3
  %50 = load ptr, ptr %49, align 8
  store ptr %50, ptr %11, align 8
  %51 = load ptr, ptr %11, align 8
  %52 = call noundef ptr @_ZN5Block9findMinLMEv(ptr noundef nonnull align 8 dereferenceable(80) %51)
  store ptr %52, ptr %12, align 8
  %53 = load ptr, ptr %12, align 8
  %54 = icmp ne ptr %53, null
  br i1 %54, label %55, label %65

55:                                               ; preds = %48
  %56 = load ptr, ptr %12, align 8
  %57 = getelementptr inbounds %struct.Constraint, ptr %56, i32 0, i32 3
  %58 = load double, ptr %57, align 8
  %59 = fcmp olt double %58, 0.000000e+00
  br i1 %59, label %60, label %65

60:                                               ; preds = %55
  store ptr null, ptr %13, align 8
  store ptr null, ptr %14, align 8
  %61 = getelementptr inbounds %struct.VPSC, ptr %16, i32 0, i32 1
  %62 = load ptr, ptr %11, align 8
  %63 = load ptr, ptr %12, align 8
  call void @_ZN6Blocks5splitEP5BlockRS1_S2_P10Constraint(ptr noundef nonnull align 8 dereferenceable(60) %61, ptr noundef %62, ptr noundef nonnull align 8 dereferenceable(8) %13, ptr noundef nonnull align 8 dereferenceable(8) %14, ptr noundef %63)
  %64 = getelementptr inbounds %struct.VPSC, ptr %16, i32 0, i32 1
  call void @_ZN6Blocks7cleanupEv(ptr noundef nonnull align 8 dereferenceable(60) %64)
  store i8 0, ptr %3, align 1
  br label %68

65:                                               ; preds = %55, %48
  br label %66

66:                                               ; preds = %65
  %67 = call noundef nonnull align 8 dereferenceable(8) ptr @_ZNSt23_Rb_tree_const_iteratorIP5BlockEppEv(ptr noundef nonnull align 8 dereferenceable(8) %9) #3
  br label %46

68:                                               ; preds = %60, %46
  br label %17, !llvm.loop !6

69:                                               ; preds = %17
  store i32 0, ptr %15, align 4
  br label %70

70:                                               ; preds = %87, %69
  %71 = load i32, ptr %15, align 4
  %72 = getelementptr inbounds %struct.VPSC, ptr %16, i32 0, i32 3
  %73 = load i32, ptr %72, align 8
  %74 = icmp ult i32 %71, %73
  br i1 %74, label %75, label %90

75:                                               ; preds = %70
  %76 = getelementptr inbounds %struct.VPSC, ptr %16, i32 0, i32 2
  %77 = load ptr, ptr %76, align 8
  %78 = load i32, ptr %15, align 4
  %79 = zext i32 %78 to i64
  %80 = getelementptr inbounds ptr, ptr %77, i64 %79
  %81 = load ptr, ptr %80, align 8
  %82 = call noundef double @_ZNK10Constraint5slackEv(ptr noundef nonnull align 8 dereferenceable(42) %81)
  %83 = fcmp olt double %82, 0xBE7AD7F29ABCAF48
  br i1 %83, label %84, label %86

84:                                               ; preds = %75
  %85 = call ptr @__cxa_allocate_exception(i64 8) #3
  store ptr @.str, ptr %85, align 16
  call void @__cxa_throw(ptr %85, ptr @_ZTIPKc, ptr null) #16
  unreachable

86:                                               ; preds = %75
  br label %87

87:                                               ; preds = %86
  %88 = load i32, ptr %15, align 4
  %89 = add i32 %88, 1
  store i32 %89, ptr %15, align 4
  br label %70, !llvm.loop !7

90:                                               ; preds = %70
  ret void
}