; Function Attrs: mustprogress uwtable
define void @_ZN4VPSC6refineEv(ptr noundef nonnull align 8 dereferenceable(84) %0) local_unnamed_addr #3 align 2 personality ptr @__gxx_personality_v0 {
.critedge:
  %1 = alloca ptr, align 8
  %2 = alloca ptr, align 8
  %3 = getelementptr inbounds i8, ptr %0, i64 8
  %4 = getelementptr inbounds i8, ptr %0, i64 32
  %5 = getelementptr inbounds i8, ptr %0, i64 16
  %6 = load ptr, ptr %4, align 8
  %.not262953 = icmp eq ptr %6, %5
  br i1 %.not262953, label %.critedge18.preheader, label %.lr.ph

.lr.ph:                                           ; preds = %.critedge, %.lr.ph.backedge
  %.sroa.023.030 = phi ptr [ %.sroa.023.030.be, %.lr.ph.backedge ], [ %6, %.critedge ]
  %7 = getelementptr inbounds i8, ptr %.sroa.023.030, i64 32
  %8 = load ptr, ptr %7, align 8
  call void @_ZN5Block18setUpInConstraintsEv(ptr noundef nonnull align 8 dereferenceable(80) %8)
  call void @_ZN5Block19setUpOutConstraintsEv(ptr noundef nonnull align 8 dereferenceable(80) %8)
  %9 = call noundef ptr @_ZSt18_Rb_tree_incrementPKSt18_Rb_tree_node_base(ptr noundef %.sroa.023.030) #21
  %.not26 = icmp eq ptr %9, %5
  br i1 %.not26, label %._crit_edge, label %.lr.ph.backedge

.lr.ph.backedge:                                  ; preds = %.lr.ph, %21
  %.sroa.023.030.be = phi ptr [ %9, %.lr.ph ], [ %22, %21 ]
  br label %.lr.ph

._crit_edge:                                      ; preds = %.lr.ph
  %.pre = load ptr, ptr %4, align 8
  %.not2731 = icmp eq ptr %.pre, %5
  br i1 %.not2731, label %.critedge18.preheader, label %.lr.ph34

.critedge18.preheader:                            ; preds = %._crit_edge, %21, %23, %.critedge
  %10 = getelementptr inbounds i8, ptr %0, i64 80
  %11 = load i32, ptr %10, align 8
  %.not38 = icmp eq i32 %11, 0
  br i1 %.not38, label %.critedge18._crit_edge, label %.lr.ph37

.lr.ph37:                                         ; preds = %.critedge18.preheader
  %12 = getelementptr inbounds i8, ptr %0, i64 72
  %13 = load ptr, ptr %12, align 8
  %wide.trip.count = zext i32 %11 to i64
  br label %25

.lr.ph34:                                         ; preds = %._crit_edge, %23
  %.sroa.019.032 = phi ptr [ %24, %23 ], [ %.pre, %._crit_edge ]
  %14 = getelementptr inbounds i8, ptr %.sroa.019.032, i64 32
  %15 = load ptr, ptr %14, align 8
  %16 = call noundef ptr @_ZN5Block9findMinLMEv(ptr noundef nonnull align 8 dereferenceable(80) %15)
  %.not = icmp eq ptr %16, null
  br i1 %.not, label %23, label %17

17:                                               ; preds = %.lr.ph34
  %18 = getelementptr inbounds i8, ptr %16, i64 24
  %19 = load double, ptr %18, align 8
  %20 = fcmp olt double %19, 0.000000e+00
  br i1 %20, label %21, label %23

21:                                               ; preds = %17
  store ptr null, ptr %1, align 8
  store ptr null, ptr %2, align 8
  call void @_ZN6Blocks5splitEP5BlockRS1_S2_P10Constraint(ptr noundef nonnull align 8 dereferenceable(60) %3, ptr noundef nonnull %15, ptr noundef nonnull align 8 dereferenceable(8) %1, ptr noundef nonnull align 8 dereferenceable(8) %2, ptr noundef nonnull %16)
  call void @_ZN6Blocks7cleanupEv(ptr noundef nonnull align 8 dereferenceable(60) %3)
  %22 = load ptr, ptr %4, align 8
  %.not2629 = icmp eq ptr %22, %5
  br i1 %.not2629, label %.critedge18.preheader, label %.lr.ph.backedge

23:                                               ; preds = %.lr.ph34, %17
  %24 = call noundef ptr @_ZSt18_Rb_tree_incrementPKSt18_Rb_tree_node_base(ptr noundef nonnull %.sroa.019.032) #21
  %.not27 = icmp eq ptr %24, %5
  br i1 %.not27, label %.critedge18.preheader, label %.lr.ph34

.critedge18:                                      ; preds = %25
  %indvars.iv.next = add nuw nsw i64 %indvars.iv, 1
  %exitcond.not = icmp eq i64 %indvars.iv.next, %wide.trip.count
  br i1 %exitcond.not, label %.critedge18._crit_edge, label %25, !llvm.loop !7

25:                                               ; preds = %.lr.ph37, %.critedge18
  %indvars.iv = phi i64 [ 0, %.lr.ph37 ], [ %indvars.iv.next, %.critedge18 ]
  %26 = getelementptr inbounds ptr, ptr %13, i64 %indvars.iv
  %27 = load ptr, ptr %26, align 8
  %28 = getelementptr inbounds i8, ptr %27, i64 8
  %29 = load ptr, ptr %28, align 8
  %30 = getelementptr inbounds i8, ptr %29, i64 32
  %31 = load ptr, ptr %30, align 8
  %32 = getelementptr inbounds i8, ptr %31, i64 24
  %33 = load double, ptr %32, align 8
  %34 = getelementptr inbounds i8, ptr %29, i64 24
  %35 = load double, ptr %34, align 8
  %36 = fadd double %33, %35
  %37 = getelementptr inbounds i8, ptr %27, i64 16
  %38 = load double, ptr %37, align 8
  %39 = fsub double %36, %38
  %40 = load ptr, ptr %27, align 8
  %41 = getelementptr inbounds i8, ptr %40, i64 32
  %42 = load ptr, ptr %41, align 8
  %43 = getelementptr inbounds i8, ptr %42, i64 24
  %44 = load double, ptr %43, align 8
  %45 = getelementptr inbounds i8, ptr %40, i64 24
  %46 = load double, ptr %45, align 8
  %47 = fadd double %44, %46
  %48 = fsub double %39, %47
  %49 = fcmp olt double %48, 0xBE7AD7F29ABCAF48
  br i1 %49, label %50, label %.critedge18

50:                                               ; preds = %25
  %51 = call ptr @__cxa_allocate_exception(i64 8) #19
  store ptr @.str, ptr %51, align 16
  call void @__cxa_throw(ptr nonnull %51, ptr nonnull @_ZTIPKc, ptr null) #20
  unreachable

.critedge18._crit_edge:                           ; preds = %.critedge18, %.critedge18.preheader
  ret void
}